; ModuleID = 'source-C-CXX/57/1023.c'
source_filename = "source-C-CXX/57/1023.c"
target datalayout = "e-m:e-p270:32:32-p271:32:32-p272:64:64-i64:64-f80:128-n8:16:32:64-S128"
target triple = "x86_64-pc-linux-gnu"

@.str = private unnamed_addr constant [4 x i8] c"%d\0A\00", align 1
@str.3 = private unnamed_addr constant [2 x i8] c"1\00", align 1
@str.4 = private unnamed_addr constant [2 x i8] c"0\00", align 1

; Function Attrs: nounwind sspstrong uwtable
define dso_local i32 @main() local_unnamed_addr #0 {
  %1 = alloca [100 x i8], align 16
  %2 = alloca i32, align 4
  %3 = getelementptr inbounds [100 x i8], [100 x i8]* %1, i64 0, i64 0
  call void @llvm.lifetime.start.p0i8(i64 100, i8* nonnull %3) #5
  %4 = bitcast i32* %2 to i8*
  call void @llvm.lifetime.start.p0i8(i64 4, i8* nonnull %4) #5
  %5 = call i32 (i8*, ...) @__isoc99_scanf(i8* getelementptr inbounds ([4 x i8], [4 x i8]* @.str, i64 0, i64 0), i32* nonnull %2)
  %6 = load i32, i32* %2, align 4, !tbaa !5
  %7 = icmp sgt i32 %6, 0
  br i1 %7, label %8, label %44

8:                                                ; preds = %0, %38
  %9 = phi i32 [ %41, %38 ], [ 0, %0 ]
  %10 = call i32 (i8*, ...) bitcast (i32 (...)* @gets to i32 (i8*, ...)*)(i8* nonnull %3) #5
  %11 = load i8, i8* %3, align 16, !tbaa !9
  %12 = add i8 %11, -65
  %13 = icmp ult i8 %12, 26
  br i1 %13, label %19, label %14

14:                                               ; preds = %8
  %15 = add i8 %11, -97
  %16 = icmp ult i8 %15, 26
  %17 = icmp eq i8 %11, 95
  %18 = or i1 %17, %16
  br i1 %18, label %19, label %38

19:                                               ; preds = %8, %14
  br label %20

20:                                               ; preds = %19, %33
  %21 = phi i64 [ %34, %33 ], [ 0, %19 ]
  %22 = phi i8 [ %36, %33 ], [ %11, %19 ]
  %23 = add i8 %22, -65
  %24 = icmp ult i8 %23, 26
  br i1 %24, label %33, label %25

25:                                               ; preds = %20
  %26 = add i8 %22, -97
  %27 = icmp ult i8 %26, 26
  %28 = icmp eq i8 %22, 95
  %29 = or i1 %28, %27
  %30 = add i8 %22, -48
  %31 = icmp ult i8 %30, 10
  %32 = or i1 %31, %29
  br i1 %32, label %33, label %38

33:                                               ; preds = %25, %20
  %34 = add nuw i64 %21, 1
  %35 = getelementptr inbounds [100 x i8], [100 x i8]* %1, i64 0, i64 %34
  %36 = load i8, i8* %35, align 1, !tbaa !9
  %37 = icmp eq i8 %36, 0
  br i1 %37, label %38, label %20, !llvm.loop !10

38:                                               ; preds = %33, %25, %14
  %39 = phi i8* [ getelementptr inbounds ([2 x i8], [2 x i8]* @str.4, i64 0, i64 0), %14 ], [ getelementptr inbounds ([2 x i8], [2 x i8]* @str.4, i64 0, i64 0), %25 ], [ getelementptr inbounds ([2 x i8], [2 x i8]* @str.3, i64 0, i64 0), %33 ]
  %40 = call i32 @puts(i8* nonnull dereferenceable(1) %39)
  %41 = add nuw nsw i32 %9, 1
  %42 = load i32, i32* %2, align 4, !tbaa !5
  %43 = icmp slt i32 %41, %42
  br i1 %43, label %8, label %44, !llvm.loop !12

44:                                               ; preds = %38, %0
  call void @llvm.lifetime.end.p0i8(i64 4, i8* nonnull %4) #5
  call void @llvm.lifetime.end.p0i8(i64 100, i8* nonnull %3) #5
  ret i32 0
}

; Function Attrs: argmemonly mustprogress nofree nosync nounwind willreturn
declare void @llvm.lifetime.start.p0i8(i64 immarg, i8* nocapture) #1

; Function Attrs: nofree nounwind
declare noundef i32 @__isoc99_scanf(i8* nocapture noundef readonly, ...) local_unnamed_addr #2

declare i32 @gets(...) local_unnamed_addr #3

; Function Attrs: argmemonly mustprogress nofree nosync nounwind willreturn
declare void @llvm.lifetime.end.p0i8(i64 immarg, i8* nocapture) #1

; Function Attrs: nofree nounwind
declare noundef i32 @puts(i8* nocapture noundef readonly) local_unnamed_addr #4


!llvm.module.flags = !{!0, !1, !2, !3}
!llvm.ident = !{!4}

!0 = !{i32 1, !"wchar_size", i32 4}
!1 = !{i32 7, !"PIC Level", i32 2}
!2 = !{i32 7, !"PIE Level", i32 2}
!3 = !{i32 7, !"uwtable", i32 1}
!4 = !{!"clang version 13.0.0"}
!5 = !{!6, !6, i64 0}
!6 = !{!"int", !7, i64 0}
!7 = !{!"omnipotent char", !8, i64 0}
!8 = !{!"Simple C/C++ TBAA"}
!9 = !{!7, !7, i64 0}
!10 = distinct !{!10, !11}
!11 = !{!"llvm.loop.mustprogress"}
!12 = distinct !{!12, !11}
